target datalayout = "e-m:e-p270:32:32-p271:32:32-p272:64:64-i64:64-i128:128-f80:128-n8:16:32:64-S128"
target triple = "x86_64-pc-linux-gnu"

%struct.KINMemRec = type { ptr, double, ptr, ptr, double, double, i32, i64, i64, i64, i64, i32, i32, i32, i32, i32, i32, i32, i32, double, double, double, double, double, double, double, double, double, i32, double, i64, i64, i64, i64, i64, i64, i64, ptr, ptr, ptr, ptr, ptr, ptr, ptr, ptr, ptr, ptr, ptr, i32, i32, double, ptr, ptr, ptr, ptr, ptr, double, ptr, ptr, ptr, ptr, i64, i64, i32, ptr, ptr, i32, ptr, ptr, i64, i64, i64, i64, ptr, ptr, ptr, ptr, i32, ptr, double, double, double, double, double, i32, double, double, double, i32 }
%struct.KINLsMemRec = type { i32, i32, i32, ptr, ptr, ptr, ptr, double, i64, i64, i64, i64, i64, i64, i64, i32, i32, ptr, ptr, ptr, ptr, i32, ptr, ptr, ptr }

@.str = private unnamed_addr constant [118 x i8] c"generated/home/dtcxzyw/WorkSpace/Projects/compilers/llvm-opt-benchmark/bench/sundials/sundials/src/kinsol/kinsol_ls.c\00", align 1
@.str.26 = private unnamed_addr constant [30 x i8] c"Linear solver memory is NULL.\00", align 1
@__func__.kinLsSetup = private unnamed_addr constant [11 x i8] c"kinLsSetup\00", align 1
@.str.31 = private unnamed_addr constant [58 x i8] c"The SUNMatZero routine failed in an unrecoverable manner.\00", align 1
@.str.32 = private unnamed_addr constant [56 x i8] c"The Jacobian routine failed in an unrecoverable manner.\00", align 1

; Function Attrs: nounwind uwtable
define i32 @kinLsSetup(ptr noundef %0) #0 {
  %2 = alloca i32, align 4
  %3 = alloca ptr, align 8
  %4 = alloca ptr, align 8
  %5 = alloca i32, align 4
  %6 = alloca i32, align 4
  store ptr %0, ptr %3, align 8, !tbaa !11
  call void @llvm.lifetime.start.p0(i64 8, ptr %4) #7
  call void @llvm.lifetime.start.p0(i64 4, ptr %5) #7
  %7 = load ptr, ptr %3, align 8, !tbaa !11
  %8 = getelementptr inbounds nuw %struct.KINMemRec, ptr %7, i32 0, i32 78
  %9 = load ptr, ptr %8, align 8, !tbaa !66
  %10 = icmp eq ptr %9, null
  br i1 %10, label %11, label %13

11:                                               ; preds = %1
  %12 = load ptr, ptr %3, align 8, !tbaa !11
  call void (ptr, i32, i32, ptr, ptr, ptr, ...) @KINProcessError(ptr noundef %12, i32 noundef -2, i32 noundef 1155, ptr noundef @__func__.kinLsSetup, ptr noundef @.str, ptr noundef @.str.26)
  store i32 -2, ptr %2, align 4
  store i32 1, ptr %6, align 4
  br label %97

13:                                               ; preds = %1
  %14 = load ptr, ptr %3, align 8, !tbaa !11
  %15 = getelementptr inbounds nuw %struct.KINMemRec, ptr %14, i32 0, i32 78
  %16 = load ptr, ptr %15, align 8, !tbaa !66
  store ptr %16, ptr %4, align 8, !tbaa !45
  %17 = load ptr, ptr %4, align 8, !tbaa !45
  %18 = getelementptr inbounds nuw %struct.KINLsMemRec, ptr %17, i32 0, i32 6
  %19 = load ptr, ptr %18, align 8, !tbaa !65
  %20 = icmp ne ptr %19, null
  br i1 %20, label %21, label %79

21:                                               ; preds = %13
  %22 = load ptr, ptr %4, align 8, !tbaa !45
  %23 = getelementptr inbounds nuw %struct.KINLsMemRec, ptr %22, i32 0, i32 8
  %24 = load i64, ptr %23, align 8, !tbaa !79
  %25 = add nsw i64 %24, 1
  store i64 %25, ptr %23, align 8, !tbaa !79
  %26 = load ptr, ptr %4, align 8, !tbaa !45
  %27 = getelementptr inbounds nuw %struct.KINLsMemRec, ptr %26, i32 0, i32 5
  %28 = load ptr, ptr %27, align 8, !tbaa !47
  %29 = call i32 @SUNLinSolGetType(ptr noundef %28)
  %30 = icmp eq i32 %29, 0
  br i1 %30, label %31, label %46

31:                                               ; preds = %21
  %32 = load ptr, ptr %4, align 8, !tbaa !45
  %33 = getelementptr inbounds nuw %struct.KINLsMemRec, ptr %32, i32 0, i32 6
  %34 = load ptr, ptr %33, align 8, !tbaa !65
  %35 = call i32 @SUNMatZero(ptr noundef %34)
  store i32 %35, ptr %5, align 4, !tbaa !20
  %36 = load i32, ptr %5, align 4, !tbaa !20
  %37 = icmp ne i32 %36, 0
  br i1 %37, label %38, label %45

38:                                               ; preds = %31
  %39 = load ptr, ptr %3, align 8, !tbaa !11
  call void (ptr, i32, i32, ptr, ptr, ptr, ...) @KINProcessError(ptr noundef %39, i32 noundef -7, i32 noundef 1173, ptr noundef @__func__.kinLsSetup, ptr noundef @.str, ptr noundef @.str.31)
  %40 = load ptr, ptr %4, align 8, !tbaa !45
  %41 = getelementptr inbounds nuw %struct.KINLsMemRec, ptr %40, i32 0, i32 16
  store i32 -7, ptr %41, align 4, !tbaa !62
  %42 = load ptr, ptr %4, align 8, !tbaa !45
  %43 = getelementptr inbounds nuw %struct.KINLsMemRec, ptr %42, i32 0, i32 16
  %44 = load i32, ptr %43, align 4, !tbaa !62
  store i32 %44, ptr %2, align 4
  store i32 1, ptr %6, align 4
  br label %97

45:                                               ; preds = %31
  br label %46

46:                                               ; preds = %45, %21
  %47 = load ptr, ptr %4, align 8, !tbaa !45
  %48 = getelementptr inbounds nuw %struct.KINLsMemRec, ptr %47, i32 0, i32 3
  %49 = load ptr, ptr %48, align 8, !tbaa !50
  %50 = load ptr, ptr %3, align 8, !tbaa !11
  %51 = getelementptr inbounds nuw %struct.KINMemRec, ptr %50, i32 0, i32 37
  %52 = load ptr, ptr %51, align 8, !tbaa !80
  %53 = load ptr, ptr %3, align 8, !tbaa !11
  %54 = getelementptr inbounds nuw %struct.KINMemRec, ptr %53, i32 0, i32 39
  %55 = load ptr, ptr %54, align 8, !tbaa !81
  %56 = load ptr, ptr %4, align 8, !tbaa !45
  %57 = getelementptr inbounds nuw %struct.KINLsMemRec, ptr %56, i32 0, i32 6
  %58 = load ptr, ptr %57, align 8, !tbaa !65
  %59 = load ptr, ptr %4, align 8, !tbaa !45
  %60 = getelementptr inbounds nuw %struct.KINLsMemRec, ptr %59, i32 0, i32 4
  %61 = load ptr, ptr %60, align 8, !tbaa !51
  %62 = load ptr, ptr %3, align 8, !tbaa !11
  %63 = getelementptr inbounds nuw %struct.KINMemRec, ptr %62, i32 0, i32 45
  %64 = load ptr, ptr %63, align 8, !tbaa !22
  %65 = load ptr, ptr %3, align 8, !tbaa !11
  %66 = getelementptr inbounds nuw %struct.KINMemRec, ptr %65, i32 0, i32 46
  %67 = load ptr, ptr %66, align 8, !tbaa !82
  %68 = call i32 %49(ptr noundef %52, ptr noundef %55, ptr noundef %58, ptr noundef %61, ptr noundef %64, ptr noundef %67)
  store i32 %68, ptr %5, align 4, !tbaa !20
  %69 = load i32, ptr %5, align 4, !tbaa !20
  %70 = icmp ne i32 %69, 0
  br i1 %70, label %71, label %78

71:                                               ; preds = %46
  %72 = load ptr, ptr %3, align 8, !tbaa !11
  call void (ptr, i32, i32, ptr, ptr, ptr, ...) @KINProcessError(ptr noundef %72, i32 noundef -6, i32 noundef 1186, ptr noundef @__func__.kinLsSetup, ptr noundef @.str, ptr noundef @.str.32)
  %73 = load ptr, ptr %4, align 8, !tbaa !45
  %74 = getelementptr inbounds nuw %struct.KINLsMemRec, ptr %73, i32 0, i32 16
  store i32 -6, ptr %74, align 4, !tbaa !62
  %75 = load ptr, ptr %4, align 8, !tbaa !45
  %76 = getelementptr inbounds nuw %struct.KINLsMemRec, ptr %75, i32 0, i32 16
  %77 = load i32, ptr %76, align 4, !tbaa !62
  store i32 %77, ptr %2, align 4
  store i32 1, ptr %6, align 4
  br label %97

78:                                               ; preds = %46
  br label %79

79:                                               ; preds = %78, %13
  %80 = load ptr, ptr %4, align 8, !tbaa !45
  %81 = getelementptr inbounds nuw %struct.KINLsMemRec, ptr %80, i32 0, i32 5
  %82 = load ptr, ptr %81, align 8, !tbaa !47
  %83 = load ptr, ptr %4, align 8, !tbaa !45
  %84 = getelementptr inbounds nuw %struct.KINLsMemRec, ptr %83, i32 0, i32 6
  %85 = load ptr, ptr %84, align 8, !tbaa !65
  %86 = call i32 @SUNLinSolSetup(ptr noundef %82, ptr noundef %85)
  %87 = load ptr, ptr %4, align 8, !tbaa !45
  %88 = getelementptr inbounds nuw %struct.KINLsMemRec, ptr %87, i32 0, i32 16
  store i32 %86, ptr %88, align 4, !tbaa !62
  %89 = load ptr, ptr %3, align 8, !tbaa !11
  %90 = getelementptr inbounds nuw %struct.KINMemRec, ptr %89, i32 0, i32 30
  %91 = load i64, ptr %90, align 8, !tbaa !83
  %92 = load ptr, ptr %3, align 8, !tbaa !11
  %93 = getelementptr inbounds nuw %struct.KINMemRec, ptr %92, i32 0, i32 32
  store i64 %91, ptr %93, align 8, !tbaa !84
  %94 = load ptr, ptr %4, align 8, !tbaa !45
  %95 = getelementptr inbounds nuw %struct.KINLsMemRec, ptr %94, i32 0, i32 16
  %96 = load i32, ptr %95, align 4, !tbaa !62
  store i32 %96, ptr %2, align 4
  store i32 1, ptr %6, align 4
  br label %97

97:                                               ; preds = %79, %71, %38, %11
  call void @llvm.lifetime.end.p0(i64 4, ptr %5) #7
  call void @llvm.lifetime.end.p0(i64 8, ptr %4) #7
  %98 = load i32, ptr %2, align 4
  ret i32 %98
}