; Function Attrs: nounwind uwtable
define i32 @kinLsSetup(ptr noundef %0) #0 {
  %2 = getelementptr inbounds nuw i8, ptr %0, i64 584
  %3 = load ptr, ptr %2, align 8, !tbaa !55
  %4 = icmp eq ptr %3, null
  br i1 %4, label %5, label %6

5:                                                ; preds = %1
  tail call void (ptr, i32, i32, ptr, ptr, ptr, ...) @KINProcessError(ptr noundef nonnull %0, i32 noundef -2, i32 noundef 1155, ptr noundef nonnull @__func__.kinLsSetup, ptr noundef nonnull @.str, ptr noundef nonnull @.str.26) #13
  br label %48

6:                                                ; preds = %1
  %7 = getelementptr inbounds nuw i8, ptr %3, i64 40
  %8 = load ptr, ptr %7, align 8, !tbaa !54
  %.not = icmp eq ptr %8, null
  br i1 %.not, label %39, label %9

9:                                                ; preds = %6
  %10 = getelementptr inbounds nuw i8, ptr %3, i64 56
  %11 = load i64, ptr %10, align 8, !tbaa !71
  %12 = add nsw i64 %11, 1
  store i64 %12, ptr %10, align 8, !tbaa !71
  %13 = getelementptr inbounds nuw i8, ptr %3, i64 32
  %14 = load ptr, ptr %13, align 8, !tbaa !37
  %15 = tail call i32 @SUNLinSolGetType(ptr noundef %14) #13
  %16 = icmp eq i32 %15, 0
  br i1 %16, label %17, label %22

17:                                               ; preds = %9
  %18 = load ptr, ptr %7, align 8, !tbaa !54
  %19 = tail call i32 @SUNMatZero(ptr noundef %18) #13
  %.not29 = icmp eq i32 %19, 0
  br i1 %.not29, label %22, label %20

20:                                               ; preds = %17
  tail call void (ptr, i32, i32, ptr, ptr, ptr, ...) @KINProcessError(ptr noundef nonnull %0, i32 noundef -7, i32 noundef 1173, ptr noundef nonnull @__func__.kinLsSetup, ptr noundef nonnull @.str, ptr noundef nonnull @.str.31) #13
  %21 = getelementptr inbounds nuw i8, ptr %3, i64 116
  store i32 -7, ptr %21, align 4, !tbaa !51
  br label %48

22:                                               ; preds = %17, %9
  %23 = getelementptr inbounds nuw i8, ptr %3, i64 16
  %24 = load ptr, ptr %23, align 8, !tbaa !42
  %25 = getelementptr inbounds nuw i8, ptr %0, i64 264
  %26 = load ptr, ptr %25, align 8, !tbaa !72
  %27 = getelementptr inbounds nuw i8, ptr %0, i64 280
  %28 = load ptr, ptr %27, align 8, !tbaa !73
  %29 = load ptr, ptr %7, align 8, !tbaa !54
  %30 = getelementptr inbounds nuw i8, ptr %3, i64 24
  %31 = load ptr, ptr %30, align 8, !tbaa !43
  %32 = getelementptr inbounds nuw i8, ptr %0, i64 328
  %33 = load ptr, ptr %32, align 8, !tbaa !13
  %34 = getelementptr inbounds nuw i8, ptr %0, i64 336
  %35 = load ptr, ptr %34, align 8, !tbaa !74
  %36 = tail call i32 %24(ptr noundef %26, ptr noundef %28, ptr noundef %29, ptr noundef %31, ptr noundef %33, ptr noundef %35) #13
  %.not30 = icmp eq i32 %36, 0
  br i1 %.not30, label %._crit_edge, label %37

._crit_edge:                                      ; preds = %22
  %.pre = load ptr, ptr %7, align 8, !tbaa !54
  br label %39

37:                                               ; preds = %22
  tail call void (ptr, i32, i32, ptr, ptr, ptr, ...) @KINProcessError(ptr noundef nonnull %0, i32 noundef -6, i32 noundef 1186, ptr noundef nonnull @__func__.kinLsSetup, ptr noundef nonnull @.str, ptr noundef nonnull @.str.32) #13
  %38 = getelementptr inbounds nuw i8, ptr %3, i64 116
  store i32 -6, ptr %38, align 4, !tbaa !51
  br label %48

39:                                               ; preds = %._crit_edge, %6
  %40 = phi ptr [ %.pre, %._crit_edge ], [ null, %6 ]
  %41 = getelementptr inbounds nuw i8, ptr %3, i64 32
  %42 = load ptr, ptr %41, align 8, !tbaa !37
  %43 = tail call i32 @SUNLinSolSetup(ptr noundef %42, ptr noundef %40) #13
  %44 = getelementptr inbounds nuw i8, ptr %3, i64 116
  store i32 %43, ptr %44, align 4, !tbaa !51
  %45 = getelementptr inbounds nuw i8, ptr %0, i64 208
  %46 = load i64, ptr %45, align 8, !tbaa !75
  %47 = getelementptr inbounds nuw i8, ptr %0, i64 224
  store i64 %46, ptr %47, align 8, !tbaa !76
  br label %48

48:                                               ; preds = %39, %37, %20, %5
  %.0 = phi i32 [ -2, %5 ], [ -7, %20 ], [ -6, %37 ], [ %43, %39 ]
  ret i32 %.0
}